; ModuleID = 'source-C-CXX/36/1076.c'
source_filename = "source-C-CXX/36/1076.c"
target datalayout = "e-m:e-p270:32:32-p271:32:32-p272:64:64-i64:64-f80:128-n8:16:32:64-S128"
target triple = "x86_64-pc-linux-gnu"

@.str = private unnamed_addr constant [4 x i8] c"%d\0A\00", align 1
@.str.2 = private unnamed_addr constant [4 x i8] c"%c\0A\00", align 1
@str = private unnamed_addr constant [3 x i8] c"no\00", align 1

; Function Attrs: nounwind sspstrong uwtable
define dso_local i32 @main() local_unnamed_addr #0 {
  %1 = alloca [10 x [10000 x i8]], align 16
  %2 = alloca i32, align 4
  %3 = alloca [10 x i32], align 16
  %4 = getelementptr inbounds [10 x [10000 x i8]], [10 x [10000 x i8]]* %1, i64 0, i64 0, i64 0
  call void @llvm.lifetime.start.p0i8(i64 100000, i8* nonnull %4) #6
  %5 = bitcast i32* %2 to i8*
  call void @llvm.lifetime.start.p0i8(i64 4, i8* nonnull %5) #6
  %6 = bitcast [10 x i32]* %3 to i8*
  call void @llvm.lifetime.start.p0i8(i64 40, i8* nonnull %6) #6
  %7 = call i32 (i8*, ...) @__isoc99_scanf(i8* getelementptr inbounds ([4 x i8], [4 x i8]* @.str, i64 0, i64 0), i32* nonnull %2)
  %8 = load i32, i32* %2, align 4, !tbaa !5
  %9 = icmp sgt i32 %8, 0
  br i1 %9, label %12, label %64

10:                                               ; preds = %12
  %11 = icmp sgt i32 %20, 0
  br i1 %11, label %23, label %64

12:                                               ; preds = %0, %12
  %13 = phi i64 [ %19, %12 ], [ 0, %0 ]
  %14 = getelementptr inbounds [10 x [10000 x i8]], [10 x [10000 x i8]]* %1, i64 0, i64 %13, i64 0
  %15 = call i32 (i8*, ...) bitcast (i32 (...)* @gets to i32 (i8*, ...)*)(i8* nonnull %14) #6
  %16 = call i64 @strlen(i8* noundef nonnull %14) #7
  %17 = trunc i64 %16 to i32
  %18 = getelementptr inbounds [10 x i32], [10 x i32]* %3, i64 0, i64 %13
  store i32 %17, i32* %18, align 4, !tbaa !5
  %19 = add nuw nsw i64 %13, 1
  %20 = load i32, i32* %2, align 4, !tbaa !5
  %21 = sext i32 %20 to i64
  %22 = icmp slt i64 %19, %21
  br i1 %22, label %12, label %10, !llvm.loop !9

23:                                               ; preds = %10, %59
  %24 = phi i64 [ %60, %59 ], [ 0, %10 ]
  %25 = getelementptr inbounds [10 x i32], [10 x i32]* %3, i64 0, i64 %24
  %26 = load i32, i32* %25, align 4, !tbaa !5
  %27 = icmp sgt i32 %26, 0
  br i1 %27, label %28, label %51

28:                                               ; preds = %23
  %29 = zext i32 %26 to i64
  br label %30

30:                                               ; preds = %28, %44
  %31 = phi i64 [ 0, %28 ], [ %45, %44 ]
  %32 = getelementptr inbounds [10 x [10000 x i8]], [10 x [10000 x i8]]* %1, i64 0, i64 %24, i64 %31
  %33 = load i8, i8* %32, align 1, !tbaa !11
  br label %34

34:                                               ; preds = %30, %47
  %35 = phi i64 [ 0, %30 ], [ %49, %47 ]
  %36 = phi i32 [ 0, %30 ], [ %48, %47 ]
  %37 = getelementptr inbounds [10 x [10000 x i8]], [10 x [10000 x i8]]* %1, i64 0, i64 %24, i64 %35
  %38 = load i8, i8* %37, align 1, !tbaa !11
  %39 = icmp ne i8 %33, %38
  %40 = icmp eq i64 %31, %35
  %41 = select i1 %39, i1 true, i1 %40
  br i1 %41, label %47, label %42

42:                                               ; preds = %34
  %43 = icmp eq i32 %36, %26
  br i1 %43, label %53, label %44

44:                                               ; preds = %42
  %45 = add nuw nsw i64 %31, 1
  %46 = icmp eq i64 %45, %29
  br i1 %46, label %51, label %30, !llvm.loop !12

47:                                               ; preds = %34
  %48 = add nuw nsw i32 %36, 1
  %49 = add nuw nsw i64 %35, 1
  %50 = icmp eq i64 %49, %29
  br i1 %50, label %53, label %34, !llvm.loop !13

51:                                               ; preds = %44, %23
  %52 = call i32 @puts(i8* nonnull dereferenceable(1) getelementptr inbounds ([3 x i8], [3 x i8]* @str, i64 0, i64 0))
  br label %59

53:                                               ; preds = %42, %47
  %54 = and i64 %31, 4294967295
  %55 = getelementptr inbounds [10 x [10000 x i8]], [10 x [10000 x i8]]* %1, i64 0, i64 %24, i64 %54
  %56 = load i8, i8* %55, align 1, !tbaa !11
  %57 = sext i8 %56 to i32
  %58 = call i32 (i8*, ...) @printf(i8* nonnull dereferenceable(1) getelementptr inbounds ([4 x i8], [4 x i8]* @.str.2, i64 0, i64 0), i32 %57)
  br label %59

59:                                               ; preds = %51, %53
  %60 = add nuw nsw i64 %24, 1
  %61 = load i32, i32* %2, align 4, !tbaa !5
  %62 = sext i32 %61 to i64
  %63 = icmp slt i64 %60, %62
  br i1 %63, label %23, label %64, !llvm.loop !14

64:                                               ; preds = %59, %0, %10
  call void @llvm.lifetime.end.p0i8(i64 40, i8* nonnull %6) #6
  call void @llvm.lifetime.end.p0i8(i64 4, i8* nonnull %5) #6
  call void @llvm.lifetime.end.p0i8(i64 100000, i8* nonnull %4) #6
  ret i32 0
}

; Function Attrs: argmemonly mustprogress nofree nosync nounwind willreturn
declare void @llvm.lifetime.start.p0i8(i64 immarg, i8* nocapture) #1

; Function Attrs: nofree nounwind
declare noundef i32 @__isoc99_scanf(i8* nocapture noundef readonly, ...) local_unnamed_addr #2

declare i32 @gets(...) local_unnamed_addr #3

; Function Attrs: argmemonly mustprogress nofree nounwind readonly willreturn
declare i64 @strlen(i8* nocapture) local_unnamed_addr #4

; Function Attrs: nofree nounwind
declare noundef i32 @printf(i8* nocapture noundef readonly, ...) local_unnamed_addr #2

; Function Attrs: argmemonly mustprogress nofree nosync nounwind willreturn
declare void @llvm.lifetime.end.p0i8(i64 immarg, i8* nocapture) #1

; Function Attrs: nofree nounwind
declare noundef i32 @puts(i8* nocapture noundef readonly) local_unnamed_addr #5


!llvm.module.flags = !{!0, !1, !2, !3}
!llvm.ident = !{!4}

!0 = !{i32 1, !"wchar_size", i32 4}
!1 = !{i32 7, !"PIC Level", i32 2}
!2 = !{i32 7, !"PIE Level", i32 2}
!3 = !{i32 7, !"uwtable", i32 1}
!4 = !{!"clang version 13.0.0"}
!5 = !{!6, !6, i64 0}
!6 = !{!"int", !7, i64 0}
!7 = !{!"omnipotent char", !8, i64 0}
!8 = !{!"Simple C/C++ TBAA"}
!9 = distinct !{!9, !10}
!10 = !{!"llvm.loop.mustprogress"}
!11 = !{!7, !7, i64 0}
!12 = distinct !{!12, !10}
!13 = distinct !{!13, !10}
!14 = distinct !{!14, !10}
